; Function Attrs: mustprogress uwtable
define hidden i32 @mbedtls_md_starts(ptr noundef readonly captures(address_is_null) %0) local_unnamed_addr #5 {
  %2 = icmp eq ptr %0, null
  br i1 %2, label %21, label %3

3:                                                ; preds = %1
  %4 = load ptr, ptr %0, align 8, !tbaa !3
  %5 = icmp eq ptr %4, null
  br i1 %5, label %21, label %6

6:                                                ; preds = %3
  %7 = getelementptr inbounds nuw i8, ptr %4, i64 8
  %8 = load i32, ptr %7, align 8, !tbaa !10
  switch i32 %8, label %21 [
    i32 2, label %9
    i32 3, label %13
    i32 4, label %17
  ]

9:                                                ; preds = %6
  %10 = getelementptr inbounds nuw i8, ptr %0, i64 8
  %11 = load ptr, ptr %10, align 8, !tbaa !9
  %12 = tail call i32 @mbedtls_sha1_starts(ptr noundef %11)
  br label %21

13:                                               ; preds = %6
  %14 = getelementptr inbounds nuw i8, ptr %0, i64 8
  %15 = load ptr, ptr %14, align 8, !tbaa !9
  %16 = tail call i32 @mbedtls_sha256_starts(ptr noundef %15, i32 noundef 1)
  br label %21

17:                                               ; preds = %6
  %18 = getelementptr inbounds nuw i8, ptr %0, i64 8
  %19 = load ptr, ptr %18, align 8, !tbaa !9
  %20 = tail call i32 @mbedtls_sha256_starts(ptr noundef %19, i32 noundef 0)
  br label %21

21:                                               ; preds = %6, %1, %3, %17, %13, %9
  %.0 = phi i32 [ %20, %17 ], [ %16, %13 ], [ %12, %9 ], [ -20736, %3 ], [ -20736, %1 ], [ -20736, %6 ]
  ret i32 %.0
}